target datalayout = "e-m:e-p270:32:32-p271:32:32-p272:64:64-i64:64-i128:128-f80:128-n8:16:32:64-S128"
target triple = "x86_64-pc-linux-gnu"

@.str.5 = private unnamed_addr constant [28 x i8] c"cli_strrcpy: NULL argument\0A\00", align 1

; Function Attrs: nounwind uwtable
define ptr @cli_strrcpy(ptr noundef %0, ptr noundef %1) #0 {
  %3 = alloca ptr, align 8
  %4 = alloca ptr, align 8
  %5 = alloca ptr, align 8
  store ptr %0, ptr %4, align 8
  store ptr %1, ptr %5, align 8
  %6 = load ptr, ptr %4, align 8
  %7 = icmp ne ptr %6, null
  br i1 %7, label %8, label %11

8:                                                ; preds = %2
  %9 = load ptr, ptr %5, align 8
  %10 = icmp ne ptr %9, null
  br i1 %10, label %12, label %11

11:                                               ; preds = %8, %2
  call void (ptr, ...) @cli_errmsg(ptr noundef @.str.5)
  store ptr null, ptr %3, align 8
  br label %24

12:                                               ; preds = %8
  br label %13

13:                                               ; preds = %20, %12
  %14 = load ptr, ptr %5, align 8
  %15 = getelementptr inbounds i8, ptr %14, i32 1
  store ptr %15, ptr %5, align 8
  %16 = load i8, ptr %14, align 1
  %17 = load ptr, ptr %4, align 8
  %18 = getelementptr inbounds i8, ptr %17, i32 1
  store ptr %18, ptr %4, align 8
  store i8 %16, ptr %17, align 1
  %19 = icmp ne i8 %16, 0
  br i1 %19, label %20, label %21

20:                                               ; preds = %13
  br label %13

21:                                               ; preds = %13
  %22 = load ptr, ptr %4, align 8
  %23 = getelementptr inbounds i8, ptr %22, i32 -1
  store ptr %23, ptr %4, align 8
  store ptr %23, ptr %3, align 8
  br label %24

24:                                               ; preds = %21, %11
  %25 = load ptr, ptr %3, align 8
  ret ptr %25
}