; Function Attrs: nounwind uwtable
define noundef ptr @cli_strrcpy(ptr noundef writeonly %0, ptr noundef readonly %1) local_unnamed_addr #1 {
  %3 = icmp ne ptr %0, null
  %4 = icmp ne ptr %1, null
  %or.cond = and i1 %3, %4
  br i1 %or.cond, label %.preheader, label %5

5:                                                ; preds = %2
  tail call void (ptr, ...) @cli_errmsg(ptr noundef nonnull @.str.5) #27
  br label %.loopexit

.preheader:                                       ; preds = %2, %.preheader
  %.07 = phi ptr [ %8, %.preheader ], [ %0, %2 ]
  %.0 = phi ptr [ %6, %.preheader ], [ %1, %2 ]
  %6 = getelementptr inbounds i8, ptr %.0, i64 1
  %7 = load i8, ptr %.0, align 1
  %8 = getelementptr inbounds i8, ptr %.07, i64 1
  store i8 %7, ptr %.07, align 1
  %.not = icmp eq i8 %7, 0
  br i1 %.not, label %.loopexit, label %.preheader

.loopexit:                                        ; preds = %.preheader, %5
  %.08 = phi ptr [ null, %5 ], [ %.07, %.preheader ]
  ret ptr %.08
}